; Function Attrs: nounwind sspstrong uwtable
define dso_local void @job_resume_locked(ptr noundef %0) local_unnamed_addr #0 {
  %2 = getelementptr inbounds nuw i8, ptr %0, i64 176
  %3 = load i32, ptr %2, align 8
  %4 = icmp sgt i32 %3, 0
  br i1 %4, label %6, label %5

5:                                                ; preds = %1
  tail call void @__assert_fail(ptr noundef nonnull @.str.17, ptr noundef nonnull @.str, i32 noundef 700, ptr noundef nonnull @__PRETTY_FUNCTION__.job_resume_locked) #17
  unreachable

6:                                                ; preds = %1
  %7 = add nsw i32 %3, -1
  store i32 %7, ptr %2, align 8
  %.not = icmp eq i32 %7, 0
  br i1 %.not, label %8, label %job_enter_cond_locked.exit

8:                                                ; preds = %6
  %9 = getelementptr i8, ptr %0, i64 16
  %.val.i = load ptr, ptr %9, align 8
  %.not10.i = icmp eq ptr %.val.i, null
  br i1 %.not10.i, label %job_enter_cond_locked.exit, label %10

10:                                               ; preds = %8
  %11 = getelementptr inbounds nuw i8, ptr %0, i64 185
  %12 = load i8, ptr %11, align 1, !range !4, !noundef !5
  %13 = trunc nuw i8 %12 to i1
  br i1 %13, label %job_enter_cond_locked.exit, label %14

14:                                               ; preds = %10
  %15 = getelementptr inbounds nuw i8, ptr %0, i64 180
  %16 = load i8, ptr %15, align 4, !range !4, !noundef !5
  %17 = trunc nuw i8 %16 to i1
  br i1 %17, label %job_enter_cond_locked.exit, label %18

18:                                               ; preds = %14
  %19 = getelementptr inbounds nuw i8, ptr %0, i64 128
  %20 = tail call zeroext i1 @timer_pending(ptr noundef nonnull %19) #15
  br i1 %20, label %job_enter_cond_locked.exit, label %21

21:                                               ; preds = %18
  %.pre.i = load i8, ptr %11, align 1, !range !4
  %22 = trunc nuw i8 %.pre.i to i1
  br i1 %22, label %23, label %.thread.i

23:                                               ; preds = %21
  tail call void @__assert_fail(ptr noundef nonnull @.str.15, ptr noundef nonnull @.str, i32 noundef 549, ptr noundef nonnull @__PRETTY_FUNCTION__.job_enter_cond_locked) #17
  unreachable

.thread.i:                                        ; preds = %21
  tail call void @timer_del(ptr noundef nonnull %19) #15
  store i8 1, ptr %15, align 4
  tail call void @qemu_mutex_unlock_impl(ptr noundef nonnull @job_mutex, ptr noundef nonnull @.str, i32 noundef 106) #15
  %24 = load ptr, ptr %9, align 8
  tail call void @aio_co_wake(ptr noundef %24) #15
  %25 = load atomic i64, ptr @qemu_mutex_lock_func monotonic, align 8
  %26 = inttoptr i64 %25 to ptr
  tail call void %26(ptr noundef nonnull @job_mutex, ptr noundef nonnull @.str, i32 noundef 101) #15
  br label %job_enter_cond_locked.exit

job_enter_cond_locked.exit:                       ; preds = %.thread.i, %18, %14, %10, %8, %6
  ret void
}